; Function Attrs: nounwind uwtable
define internal range(i32 0, 2) i32 @parse_expected_client_ca_names(ptr noundef captures(none) %0, ptr noundef %1) #1 {
  %3 = getelementptr inbounds nuw i8, ptr %0, i64 520
  %4 = getelementptr inbounds nuw i8, ptr %0, i64 568
  %5 = load ptr, ptr %4, align 8, !tbaa !14
  %6 = icmp eq ptr %1, null
  br i1 %6, label %parse_expected_ca_names.exit, label %7

7:                                                ; preds = %2
  %8 = tail call i32 @strcmp(ptr noundef nonnull dereferenceable(1) %1, ptr noundef nonnull dereferenceable(6) @.str.138) #9
  %.not.i = icmp eq i32 %8, 0
  br i1 %.not.i, label %9, label %11

9:                                                ; preds = %7
  %10 = tail call ptr @OPENSSL_sk_new_null() #8
  br label %13

11:                                               ; preds = %7
  %12 = tail call ptr @SSL_load_client_CA_file_ex(ptr noundef nonnull %1, ptr noundef %5, ptr noundef null) #8
  br label %13

13:                                               ; preds = %11, %9
  %storemerge.i = phi ptr [ %10, %9 ], [ %12, %11 ]
  store ptr %storemerge.i, ptr %3, align 8, !tbaa !82
  %14 = icmp ne ptr %storemerge.i, null
  %15 = zext i1 %14 to i32
  br label %parse_expected_ca_names.exit

parse_expected_ca_names.exit:                     ; preds = %2, %13
  %.0.i = phi i32 [ %15, %13 ], [ 0, %2 ]
  ret i32 %.0.i
}